target datalayout = "e-m:e-p270:32:32-p271:32:32-p272:64:64-i64:64-i128:128-f80:128-n8:16:32:64-S128"
target triple = "x86_64-pc-linux-gnu"

%struct.jpeg_decompress_struct = type { ptr, ptr, ptr, ptr, i32, i32, ptr, i32, i32, i32, i32, i32, i32, i32, double, i32, i32, i32, i32, i32, i32, i32, i32, i32, i32, i32, i32, i32, i32, i32, i32, i32, i32, ptr, i32, i32, i32, i32, i32, ptr, [4 x ptr], [4 x ptr], [4 x ptr], i32, ptr, i32, i32, [16 x i8], [16 x i8], [16 x i8], i32, i32, i8, i8, i8, i16, i16, i32, i8, i32, ptr, i32, i32, i32, i32, ptr, i32, [4 x ptr], i32, i32, i32, [10 x i32], i32, i32, i32, i32, i32, ptr, ptr, ptr, ptr, ptr, ptr, ptr, ptr, ptr, ptr, ptr }
%struct.jpeg_error_mgr = type { ptr, ptr, ptr, ptr, ptr, i32, %union.anon, i32, i64, ptr, i32, ptr, i32, i32 }
%union.anon = type { [8 x i32], [48 x i8] }
%struct.jpeg_source_mgr = type { ptr, i64, ptr, ptr, ptr, ptr, ptr }
%struct.jpeg_marker_reader = type { ptr, ptr, ptr, i32, i32, i32, i32 }

; Function Attrs: nounwind uwtable
define internal i32 @next_marker(ptr noundef %0) #0 {
  %2 = alloca i32, align 4
  %3 = alloca ptr, align 8
  %4 = alloca i32, align 4
  %5 = alloca ptr, align 8
  %6 = alloca ptr, align 8
  %7 = alloca i64, align 8
  %8 = alloca i32, align 4
  store ptr %0, ptr %3, align 8, !tbaa !3
  call void @llvm.lifetime.start.p0(i64 4, ptr %4) #5
  call void @llvm.lifetime.start.p0(i64 8, ptr %5) #5
  %9 = load ptr, ptr %3, align 8, !tbaa !3
  %10 = getelementptr inbounds nuw %struct.jpeg_decompress_struct, ptr %9, i32 0, i32 6
  %11 = load ptr, ptr %10, align 8, !tbaa !39
  store ptr %11, ptr %5, align 8, !tbaa !40
  call void @llvm.lifetime.start.p0(i64 8, ptr %6) #5
  %12 = load ptr, ptr %5, align 8, !tbaa !40
  %13 = getelementptr inbounds nuw %struct.jpeg_source_mgr, ptr %12, i32 0, i32 0
  %14 = load ptr, ptr %13, align 8, !tbaa !41
  store ptr %14, ptr %6, align 8, !tbaa !43
  call void @llvm.lifetime.start.p0(i64 8, ptr %7) #5
  %15 = load ptr, ptr %5, align 8, !tbaa !40
  %16 = getelementptr inbounds nuw %struct.jpeg_source_mgr, ptr %15, i32 0, i32 1
  %17 = load i64, ptr %16, align 8, !tbaa !44
  store i64 %17, ptr %7, align 8, !tbaa !45
  br label %18

18:                                               ; preds = %125, %1
  br label %19

19:                                               ; preds = %18
  %20 = load i64, ptr %7, align 8, !tbaa !45
  %21 = icmp eq i64 %20, 0
  br i1 %21, label %22, label %37

22:                                               ; preds = %19
  %23 = load ptr, ptr %5, align 8, !tbaa !40
  %24 = getelementptr inbounds nuw %struct.jpeg_source_mgr, ptr %23, i32 0, i32 3
  %25 = load ptr, ptr %24, align 8, !tbaa !46
  %26 = load ptr, ptr %3, align 8, !tbaa !3
  %27 = call i32 %25(ptr noundef %26)
  %28 = icmp ne i32 %27, 0
  br i1 %28, label %30, label %29

29:                                               ; preds = %22
  store i32 0, ptr %2, align 4
  store i32 1, ptr %8, align 4
  br label %186

30:                                               ; preds = %22
  %31 = load ptr, ptr %5, align 8, !tbaa !40
  %32 = getelementptr inbounds nuw %struct.jpeg_source_mgr, ptr %31, i32 0, i32 0
  %33 = load ptr, ptr %32, align 8, !tbaa !41
  store ptr %33, ptr %6, align 8, !tbaa !43
  %34 = load ptr, ptr %5, align 8, !tbaa !40
  %35 = getelementptr inbounds nuw %struct.jpeg_source_mgr, ptr %34, i32 0, i32 1
  %36 = load i64, ptr %35, align 8, !tbaa !44
  store i64 %36, ptr %7, align 8, !tbaa !45
  br label %37

37:                                               ; preds = %30, %19
  %38 = load i64, ptr %7, align 8, !tbaa !45
  %39 = add i64 %38, -1
  store i64 %39, ptr %7, align 8, !tbaa !45
  %40 = load ptr, ptr %6, align 8, !tbaa !43
  %41 = getelementptr inbounds nuw i8, ptr %40, i32 1
  store ptr %41, ptr %6, align 8, !tbaa !43
  %42 = load i8, ptr %40, align 1, !tbaa !37
  %43 = zext i8 %42 to i32
  store i32 %43, ptr %4, align 4, !tbaa !8
  br label %44

44:                                               ; preds = %37
  br label %45

45:                                               ; preds = %44
  br label %46

46:                                               ; preds = %88, %45
  %47 = load i32, ptr %4, align 4, !tbaa !8
  %48 = icmp ne i32 %47, 255
  br i1 %48, label %49, label %89

49:                                               ; preds = %46
  %50 = load ptr, ptr %3, align 8, !tbaa !3
  %51 = getelementptr inbounds nuw %struct.jpeg_decompress_struct, ptr %50, i32 0, i32 82
  %52 = load ptr, ptr %51, align 8, !tbaa !47
  %53 = getelementptr inbounds nuw %struct.jpeg_marker_reader, ptr %52, i32 0, i32 6
  %54 = load i32, ptr %53, align 4, !tbaa !48
  %55 = add i32 %54, 1
  store i32 %55, ptr %53, align 4, !tbaa !48
  %56 = load ptr, ptr %6, align 8, !tbaa !43
  %57 = load ptr, ptr %5, align 8, !tbaa !40
  %58 = getelementptr inbounds nuw %struct.jpeg_source_mgr, ptr %57, i32 0, i32 0
  store ptr %56, ptr %58, align 8, !tbaa !41
  %59 = load i64, ptr %7, align 8, !tbaa !45
  %60 = load ptr, ptr %5, align 8, !tbaa !40
  %61 = getelementptr inbounds nuw %struct.jpeg_source_mgr, ptr %60, i32 0, i32 1
  store i64 %59, ptr %61, align 8, !tbaa !44
  br label %62

62:                                               ; preds = %49
  %63 = load i64, ptr %7, align 8, !tbaa !45
  %64 = icmp eq i64 %63, 0
  br i1 %64, label %65, label %80

65:                                               ; preds = %62
  %66 = load ptr, ptr %5, align 8, !tbaa !40
  %67 = getelementptr inbounds nuw %struct.jpeg_source_mgr, ptr %66, i32 0, i32 3
  %68 = load ptr, ptr %67, align 8, !tbaa !46
  %69 = load ptr, ptr %3, align 8, !tbaa !3
  %70 = call i32 %68(ptr noundef %69)
  %71 = icmp ne i32 %70, 0
  br i1 %71, label %73, label %72

72:                                               ; preds = %65
  store i32 0, ptr %2, align 4
  store i32 1, ptr %8, align 4
  br label %186

73:                                               ; preds = %65
  %74 = load ptr, ptr %5, align 8, !tbaa !40
  %75 = getelementptr inbounds nuw %struct.jpeg_source_mgr, ptr %74, i32 0, i32 0
  %76 = load ptr, ptr %75, align 8, !tbaa !41
  store ptr %76, ptr %6, align 8, !tbaa !43
  %77 = load ptr, ptr %5, align 8, !tbaa !40
  %78 = getelementptr inbounds nuw %struct.jpeg_source_mgr, ptr %77, i32 0, i32 1
  %79 = load i64, ptr %78, align 8, !tbaa !44
  store i64 %79, ptr %7, align 8, !tbaa !45
  br label %80

80:                                               ; preds = %73, %62
  %81 = load i64, ptr %7, align 8, !tbaa !45
  %82 = add i64 %81, -1
  store i64 %82, ptr %7, align 8, !tbaa !45
  %83 = load ptr, ptr %6, align 8, !tbaa !43
  %84 = getelementptr inbounds nuw i8, ptr %83, i32 1
  store ptr %84, ptr %6, align 8, !tbaa !43
  %85 = load i8, ptr %83, align 1, !tbaa !37
  %86 = zext i8 %85 to i32
  store i32 %86, ptr %4, align 4, !tbaa !8
  br label %87

87:                                               ; preds = %80
  br label %88

88:                                               ; preds = %87
  br label %46, !llvm.loop !50

89:                                               ; preds = %46
  br label %90

90:                                               ; preds = %118, %89
  br label %91

91:                                               ; preds = %90
  %92 = load i64, ptr %7, align 8, !tbaa !45
  %93 = icmp eq i64 %92, 0
  br i1 %93, label %94, label %109

94:                                               ; preds = %91
  %95 = load ptr, ptr %5, align 8, !tbaa !40
  %96 = getelementptr inbounds nuw %struct.jpeg_source_mgr, ptr %95, i32 0, i32 3
  %97 = load ptr, ptr %96, align 8, !tbaa !46
  %98 = load ptr, ptr %3, align 8, !tbaa !3
  %99 = call i32 %97(ptr noundef %98)
  %100 = icmp ne i32 %99, 0
  br i1 %100, label %102, label %101

101:                                              ; preds = %94
  store i32 0, ptr %2, align 4
  store i32 1, ptr %8, align 4
  br label %186

102:                                              ; preds = %94
  %103 = load ptr, ptr %5, align 8, !tbaa !40
  %104 = getelementptr inbounds nuw %struct.jpeg_source_mgr, ptr %103, i32 0, i32 0
  %105 = load ptr, ptr %104, align 8, !tbaa !41
  store ptr %105, ptr %6, align 8, !tbaa !43
  %106 = load ptr, ptr %5, align 8, !tbaa !40
  %107 = getelementptr inbounds nuw %struct.jpeg_source_mgr, ptr %106, i32 0, i32 1
  %108 = load i64, ptr %107, align 8, !tbaa !44
  store i64 %108, ptr %7, align 8, !tbaa !45
  br label %109

109:                                              ; preds = %102, %91
  %110 = load i64, ptr %7, align 8, !tbaa !45
  %111 = add i64 %110, -1
  store i64 %111, ptr %7, align 8, !tbaa !45
  %112 = load ptr, ptr %6, align 8, !tbaa !43
  %113 = getelementptr inbounds nuw i8, ptr %112, i32 1
  store ptr %113, ptr %6, align 8, !tbaa !43
  %114 = load i8, ptr %112, align 1, !tbaa !37
  %115 = zext i8 %114 to i32
  store i32 %115, ptr %4, align 4, !tbaa !8
  br label %116

116:                                              ; preds = %109
  br label %117

117:                                              ; preds = %116
  br label %118

118:                                              ; preds = %117
  %119 = load i32, ptr %4, align 4, !tbaa !8
  %120 = icmp eq i32 %119, 255
  br i1 %120, label %90, label %121, !llvm.loop !52

121:                                              ; preds = %118
  %122 = load i32, ptr %4, align 4, !tbaa !8
  %123 = icmp ne i32 %122, 0
  br i1 %123, label %124, label %125

124:                                              ; preds = %121
  br label %138

125:                                              ; preds = %121
  %126 = load ptr, ptr %3, align 8, !tbaa !3
  %127 = getelementptr inbounds nuw %struct.jpeg_decompress_struct, ptr %126, i32 0, i32 82
  %128 = load ptr, ptr %127, align 8, !tbaa !47
  %129 = getelementptr inbounds nuw %struct.jpeg_marker_reader, ptr %128, i32 0, i32 6
  %130 = load i32, ptr %129, align 4, !tbaa !48
  %131 = add i32 %130, 2
  store i32 %131, ptr %129, align 4, !tbaa !48
  %132 = load ptr, ptr %6, align 8, !tbaa !43
  %133 = load ptr, ptr %5, align 8, !tbaa !40
  %134 = getelementptr inbounds nuw %struct.jpeg_source_mgr, ptr %133, i32 0, i32 0
  store ptr %132, ptr %134, align 8, !tbaa !41
  %135 = load i64, ptr %7, align 8, !tbaa !45
  %136 = load ptr, ptr %5, align 8, !tbaa !40
  %137 = getelementptr inbounds nuw %struct.jpeg_source_mgr, ptr %136, i32 0, i32 1
  store i64 %135, ptr %137, align 8, !tbaa !44
  br label %18

138:                                              ; preds = %124
  %139 = load ptr, ptr %3, align 8, !tbaa !3
  %140 = getelementptr inbounds nuw %struct.jpeg_decompress_struct, ptr %139, i32 0, i32 82
  %141 = load ptr, ptr %140, align 8, !tbaa !47
  %142 = getelementptr inbounds nuw %struct.jpeg_marker_reader, ptr %141, i32 0, i32 6
  %143 = load i32, ptr %142, align 4, !tbaa !48
  %144 = icmp ne i32 %143, 0
  br i1 %144, label %145, label %176

145:                                              ; preds = %138
  %146 = load ptr, ptr %3, align 8, !tbaa !3
  %147 = getelementptr inbounds nuw %struct.jpeg_decompress_struct, ptr %146, i32 0, i32 0
  %148 = load ptr, ptr %147, align 8, !tbaa !33
  %149 = getelementptr inbounds nuw %struct.jpeg_error_mgr, ptr %148, i32 0, i32 5
  store i32 116, ptr %149, align 8, !tbaa !34
  %150 = load ptr, ptr %3, align 8, !tbaa !3
  %151 = getelementptr inbounds nuw %struct.jpeg_decompress_struct, ptr %150, i32 0, i32 82
  %152 = load ptr, ptr %151, align 8, !tbaa !47
  %153 = getelementptr inbounds nuw %struct.jpeg_marker_reader, ptr %152, i32 0, i32 6
  %154 = load i32, ptr %153, align 4, !tbaa !48
  %155 = load ptr, ptr %3, align 8, !tbaa !3
  %156 = getelementptr inbounds nuw %struct.jpeg_decompress_struct, ptr %155, i32 0, i32 0
  %157 = load ptr, ptr %156, align 8, !tbaa !33
  %158 = getelementptr inbounds nuw %struct.jpeg_error_mgr, ptr %157, i32 0, i32 6
  %159 = getelementptr inbounds [8 x i32], ptr %158, i64 0, i64 0
  store i32 %154, ptr %159, align 4, !tbaa !37
  %160 = load i32, ptr %4, align 4, !tbaa !8
  %161 = load ptr, ptr %3, align 8, !tbaa !3
  %162 = getelementptr inbounds nuw %struct.jpeg_decompress_struct, ptr %161, i32 0, i32 0
  %163 = load ptr, ptr %162, align 8, !tbaa !33
  %164 = getelementptr inbounds nuw %struct.jpeg_error_mgr, ptr %163, i32 0, i32 6
  %165 = getelementptr inbounds [8 x i32], ptr %164, i64 0, i64 1
  store i32 %160, ptr %165, align 4, !tbaa !37
  %166 = load ptr, ptr %3, align 8, !tbaa !3
  %167 = getelementptr inbounds nuw %struct.jpeg_decompress_struct, ptr %166, i32 0, i32 0
  %168 = load ptr, ptr %167, align 8, !tbaa !33
  %169 = getelementptr inbounds nuw %struct.jpeg_error_mgr, ptr %168, i32 0, i32 1
  %170 = load ptr, ptr %169, align 8, !tbaa !38
  %171 = load ptr, ptr %3, align 8, !tbaa !3
  call void %170(ptr noundef %171, i32 noundef -1)
  %172 = load ptr, ptr %3, align 8, !tbaa !3
  %173 = getelementptr inbounds nuw %struct.jpeg_decompress_struct, ptr %172, i32 0, i32 82
  %174 = load ptr, ptr %173, align 8, !tbaa !47
  %175 = getelementptr inbounds nuw %struct.jpeg_marker_reader, ptr %174, i32 0, i32 6
  store i32 0, ptr %175, align 4, !tbaa !48
  br label %176

176:                                              ; preds = %145, %138
  %177 = load i32, ptr %4, align 4, !tbaa !8
  %178 = load ptr, ptr %3, align 8, !tbaa !3
  %179 = getelementptr inbounds nuw %struct.jpeg_decompress_struct, ptr %178, i32 0, i32 76
  store i32 %177, ptr %179, align 4, !tbaa !10
  %180 = load ptr, ptr %6, align 8, !tbaa !43
  %181 = load ptr, ptr %5, align 8, !tbaa !40
  %182 = getelementptr inbounds nuw %struct.jpeg_source_mgr, ptr %181, i32 0, i32 0
  store ptr %180, ptr %182, align 8, !tbaa !41
  %183 = load i64, ptr %7, align 8, !tbaa !45
  %184 = load ptr, ptr %5, align 8, !tbaa !40
  %185 = getelementptr inbounds nuw %struct.jpeg_source_mgr, ptr %184, i32 0, i32 1
  store i64 %183, ptr %185, align 8, !tbaa !44
  store i32 1, ptr %2, align 4
  store i32 1, ptr %8, align 4
  br label %186

186:                                              ; preds = %176, %101, %72, %29
  call void @llvm.lifetime.end.p0(i64 8, ptr %7) #5
  call void @llvm.lifetime.end.p0(i64 8, ptr %6) #5
  call void @llvm.lifetime.end.p0(i64 8, ptr %5) #5
  call void @llvm.lifetime.end.p0(i64 4, ptr %4) #5
  %187 = load i32, ptr %2, align 4
  ret i32 %187
}