; Function Attrs: nounwind uwtable
define internal fastcc range(i32 0, 2) i32 @next_marker(ptr noundef %0) unnamed_addr #0 {
  %2 = getelementptr inbounds nuw i8, ptr %0, i64 40
  %3 = load ptr, ptr %2, align 8, !tbaa !36
  %4 = load ptr, ptr %3, align 8, !tbaa !37
  %5 = getelementptr inbounds nuw i8, ptr %3, i64 8
  %6 = load i64, ptr %5, align 8, !tbaa !39
  %7 = getelementptr inbounds nuw i8, ptr %3, i64 24
  %8 = getelementptr inbounds nuw i8, ptr %0, i64 584
  br label %9

9:                                                ; preds = %41, %1
  %.052 = phi ptr [ %4, %1 ], [ %39, %41 ]
  %.0 = phi i64 [ %6, %1 ], [ %38, %41 ]
  %10 = icmp eq i64 %.0, 0
  br i1 %10, label %11, label %17

11:                                               ; preds = %9
  %12 = load ptr, ptr %7, align 8, !tbaa !40
  %13 = tail call i32 %12(ptr noundef nonnull %0) #7
  %.not = icmp eq i32 %13, 0
  br i1 %.not, label %.loopexit, label %14

14:                                               ; preds = %11
  %15 = load ptr, ptr %3, align 8, !tbaa !37
  %16 = load i64, ptr %5, align 8, !tbaa !39
  br label %17

17:                                               ; preds = %14, %9
  %.153 = phi ptr [ %15, %14 ], [ %.052, %9 ]
  %.1 = phi i64 [ %16, %14 ], [ %.0, %9 ]
  %.25475 = getelementptr inbounds nuw i8, ptr %.153, i64 1
  %.276 = add i64 %.1, -1
  %.059.in77 = load i8, ptr %.153, align 1, !tbaa !34
  %.not6178 = icmp eq i8 %.059.in77, -1
  br i1 %.not6178, label %.preheader.preheader, label %.lr.ph

.lr.ph:                                           ; preds = %17, %29
  %.280 = phi i64 [ %.2, %29 ], [ %.276, %17 ]
  %.25479 = phi ptr [ %.254, %29 ], [ %.25475, %17 ]
  %18 = load ptr, ptr %8, align 8, !tbaa !41
  %19 = getelementptr inbounds nuw i8, ptr %18, i64 36
  %20 = load i32, ptr %19, align 4, !tbaa !42
  %21 = add i32 %20, 1
  store i32 %21, ptr %19, align 4, !tbaa !42
  store ptr %.25479, ptr %3, align 8, !tbaa !37
  store i64 %.280, ptr %5, align 8, !tbaa !39
  %22 = icmp eq i64 %.280, 0
  br i1 %22, label %23, label %29

23:                                               ; preds = %.lr.ph
  %24 = load ptr, ptr %7, align 8, !tbaa !40
  %25 = tail call i32 %24(ptr noundef nonnull %0) #7
  %.not65 = icmp eq i32 %25, 0
  br i1 %.not65, label %.loopexit, label %26

26:                                               ; preds = %23
  %27 = load ptr, ptr %3, align 8, !tbaa !37
  %28 = load i64, ptr %5, align 8, !tbaa !39
  br label %29

29:                                               ; preds = %26, %.lr.ph
  %.355 = phi ptr [ %27, %26 ], [ %.25479, %.lr.ph ]
  %.3 = phi i64 [ %28, %26 ], [ %.280, %.lr.ph ]
  %.254 = getelementptr inbounds nuw i8, ptr %.355, i64 1
  %.2 = add i64 %.3, -1
  %.059.in = load i8, ptr %.355, align 1, !tbaa !34
  %.not61 = icmp eq i8 %.059.in, -1
  br i1 %.not61, label %.preheader.preheader, label %.lr.ph, !llvm.loop !44

.preheader.preheader:                             ; preds = %29, %17
  %.456.ph = phi ptr [ %.25475, %17 ], [ %.254, %29 ]
  %.4.ph = phi i64 [ %.276, %17 ], [ %.2, %29 ]
  br label %.preheader

.preheader:                                       ; preds = %.preheader.preheader, %37
  %.456 = phi ptr [ %39, %37 ], [ %.456.ph, %.preheader.preheader ]
  %.4 = phi i64 [ %38, %37 ], [ %.4.ph, %.preheader.preheader ]
  %30 = icmp eq i64 %.4, 0
  br i1 %30, label %31, label %37

31:                                               ; preds = %.preheader
  %32 = load ptr, ptr %7, align 8, !tbaa !40
  %33 = tail call i32 %32(ptr noundef %0) #7
  %.not62 = icmp eq i32 %33, 0
  br i1 %.not62, label %.loopexit, label %34

34:                                               ; preds = %31
  %35 = load ptr, ptr %3, align 8, !tbaa !37
  %36 = load i64, ptr %5, align 8, !tbaa !39
  br label %37

37:                                               ; preds = %34, %.preheader
  %.557 = phi ptr [ %35, %34 ], [ %.456, %.preheader ]
  %.5 = phi i64 [ %36, %34 ], [ %.4, %.preheader ]
  %38 = add i64 %.5, -1
  %39 = getelementptr inbounds nuw i8, ptr %.557, i64 1
  %40 = load i8, ptr %.557, align 1, !tbaa !34
  switch i8 %40, label %46 [
    i8 -1, label %.preheader
    i8 0, label %41
  ]

41:                                               ; preds = %37
  %42 = load ptr, ptr %8, align 8, !tbaa !41
  %43 = getelementptr inbounds nuw i8, ptr %42, i64 36
  %44 = load i32, ptr %43, align 4, !tbaa !42
  %45 = add i32 %44, 2
  store i32 %45, ptr %43, align 4, !tbaa !42
  store ptr %39, ptr %3, align 8, !tbaa !37
  store i64 %38, ptr %5, align 8, !tbaa !39
  br label %9

46:                                               ; preds = %37
  %47 = zext i8 %40 to i32
  %48 = load ptr, ptr %8, align 8, !tbaa !41
  %49 = getelementptr inbounds nuw i8, ptr %48, i64 36
  %50 = load i32, ptr %49, align 4, !tbaa !42
  %.not64 = icmp eq i32 %50, 0
  br i1 %.not64, label %62, label %51

51:                                               ; preds = %46
  %52 = load ptr, ptr %0, align 8, !tbaa !30
  %53 = getelementptr inbounds nuw i8, ptr %52, i64 40
  store i32 116, ptr %53, align 8, !tbaa !31
  %54 = getelementptr inbounds nuw i8, ptr %52, i64 44
  store i32 %50, ptr %54, align 4, !tbaa !34
  %55 = load ptr, ptr %0, align 8, !tbaa !30
  %56 = getelementptr inbounds nuw i8, ptr %55, i64 48
  store i32 %47, ptr %56, align 4, !tbaa !34
  %57 = load ptr, ptr %0, align 8, !tbaa !30
  %58 = getelementptr inbounds nuw i8, ptr %57, i64 8
  %59 = load ptr, ptr %58, align 8, !tbaa !35
  tail call void %59(ptr noundef nonnull %0, i32 noundef -1) #7
  %60 = load ptr, ptr %8, align 8, !tbaa !41
  %61 = getelementptr inbounds nuw i8, ptr %60, i64 36
  store i32 0, ptr %61, align 4, !tbaa !42
  br label %62

62:                                               ; preds = %51, %46
  %63 = getelementptr inbounds nuw i8, ptr %0, i64 540
  store i32 %47, ptr %63, align 4, !tbaa !3
  store ptr %39, ptr %3, align 8, !tbaa !37
  store i64 %38, ptr %5, align 8, !tbaa !39
  br label %.loopexit

.loopexit:                                        ; preds = %11, %23, %31, %62
  %.058 = phi i32 [ 1, %62 ], [ 0, %31 ], [ 0, %23 ], [ 0, %11 ]
  ret i32 %.058
}